; ModuleID = '53/72.c'
source_filename = "53/72.c"
target datalayout = "e-m:e-p270:32:32-p271:32:32-p272:64:64-i64:64-f80:128-n8:16:32:64-S128"
target triple = "x86_64-pc-linux-gnu"

@.str = private unnamed_addr constant [3 x i8] c"%d\00", align 1
@.str.1 = private unnamed_addr constant [4 x i8] c",%d\00", align 1

; Function Attrs: noinline nounwind uwtable
define dso_local void @main() #0 {
  %1 = alloca i32, align 4
  %2 = alloca i32, align 4
  %3 = alloca i32, align 4
  %4 = alloca i32, align 4
  %5 = alloca [300 x i32], align 16
  %6 = call i32 (i8*, ...) @__isoc99_scanf(i8* getelementptr inbounds ([3 x i8], [3 x i8]* @.str, i64 0, i64 0), i32* %1)
  store i32 0, i32* %2, align 4
  br label %7

7:                                                ; preds = %16, %0
  %8 = load i32, i32* %2, align 4
  %9 = load i32, i32* %1, align 4
  %10 = icmp slt i32 %8, %9
  br i1 %10, label %11, label %19

11:                                               ; preds = %7
  %12 = load i32, i32* %2, align 4
  %13 = sext i32 %12 to i64
  %14 = getelementptr inbounds [300 x i32], [300 x i32]* %5, i64 0, i64 %13
  %15 = call i32 (i8*, ...) @__isoc99_scanf(i8* getelementptr inbounds ([3 x i8], [3 x i8]* @.str, i64 0, i64 0), i32* %14)
  br label %16

16:                                               ; preds = %11
  %17 = load i32, i32* %2, align 4
  %18 = add nsw i32 %17, 1
  store i32 %18, i32* %2, align 4
  br label %7

19:                                               ; preds = %7
  %20 = getelementptr inbounds [300 x i32], [300 x i32]* %5, i64 0, i64 0
  %21 = load i32, i32* %20, align 16
  %22 = call i32 (i8*, ...) @printf(i8* getelementptr inbounds ([3 x i8], [3 x i8]* @.str, i64 0, i64 0), i32 %21)
  store i32 0, i32* %2, align 4
  br label %23

23:                                               ; preds = %63, %19
  %24 = load i32, i32* %2, align 4
  %25 = load i32, i32* %1, align 4
  %26 = sub nsw i32 %25, 1
  %27 = icmp slt i32 %24, %26
  br i1 %27, label %28, label %66

28:                                               ; preds = %23
  store i32 0, i32* %4, align 4
  store i32 0, i32* %3, align 4
  br label %29

29:                                               ; preds = %48, %28
  %30 = load i32, i32* %3, align 4
  %31 = load i32, i32* %2, align 4
  %32 = icmp sle i32 %30, %31
  br i1 %32, label %33, label %51

33:                                               ; preds = %29
  %34 = load i32, i32* %2, align 4
  %35 = add nsw i32 %34, 1
  %36 = sext i32 %35 to i64
  %37 = getelementptr inbounds [300 x i32], [300 x i32]* %5, i64 0, i64 %36
  %38 = load i32, i32* %37, align 4
  %39 = load i32, i32* %3, align 4
  %40 = sext i32 %39 to i64
  %41 = getelementptr inbounds [300 x i32], [300 x i32]* %5, i64 0, i64 %40
  %42 = load i32, i32* %41, align 4
  %43 = icmp ne i32 %38, %42
  br i1 %43, label %44, label %47

44:                                               ; preds = %33
  %45 = load i32, i32* %4, align 4
  %46 = add nsw i32 %45, 1
  store i32 %46, i32* %4, align 4
  br label %47

47:                                               ; preds = %44, %33
  br label %48

48:                                               ; preds = %47
  %49 = load i32, i32* %3, align 4
  %50 = add nsw i32 %49, 1
  store i32 %50, i32* %3, align 4
  br label %29

51:                                               ; preds = %29
  %52 = load i32, i32* %4, align 4
  %53 = load i32, i32* %2, align 4
  %54 = add nsw i32 1, %53
  %55 = icmp eq i32 %52, %54
  br i1 %55, label %56, label %63

56:                                               ; preds = %51
  %57 = load i32, i32* %2, align 4
  %58 = add nsw i32 %57, 1
  %59 = sext i32 %58 to i64
  %60 = getelementptr inbounds [300 x i32], [300 x i32]* %5, i64 0, i64 %59
  %61 = load i32, i32* %60, align 4
  %62 = call i32 (i8*, ...) @printf(i8* getelementptr inbounds ([4 x i8], [4 x i8]* @.str.1, i64 0, i64 0), i32 %61)
  br label %63

63:                                               ; preds = %56, %51
  %64 = load i32, i32* %2, align 4
  %65 = add nsw i32 %64, 1
  store i32 %65, i32* %2, align 4
  br label %23

66:                                               ; preds = %23
  ret void
}

declare dso_local i32 @__isoc99_scanf(i8*, ...) #1

declare dso_local i32 @printf(i8*, ...) #1


!llvm.module.flags = !{!0}
!llvm.ident = !{!1}

!0 = !{i32 1, !"wchar_size", i32 4}
!1 = !{!"clang version 10.0.0-4ubuntu1 "}
